target datalayout = "e-m:e-p270:32:32-p271:32:32-p272:64:64-i64:64-i128:128-f80:128-n8:16:32:64-S128"
target triple = "x86_64-pc-linux-gnu"

%struct.uv_loop_s = type { ptr, i32, %struct.uv__queue, %union.anon, ptr, i32, i64, i32, %struct.uv__queue, %struct.uv__queue, ptr, i32, i32, %struct.uv__queue, %union.pthread_mutex_t, %struct.uv_async_s, %union.pthread_rwlock_t, ptr, %struct.uv__queue, %struct.uv__queue, %struct.uv__queue, %struct.uv__queue, %struct.uv__queue, ptr, %struct.uv__io_s, i32, %struct.anon, i64, i64, [2 x i32], %struct.uv__io_s, %struct.uv_signal_s, i32, %struct.uv__io_s, ptr, i32 }
%union.anon = type { ptr }
%union.pthread_mutex_t = type { %struct.__pthread_mutex_s }
%struct.__pthread_mutex_s = type { i32, i32, i32, i32, i32, i16, i16, %struct.__pthread_internal_list }
%struct.__pthread_internal_list = type { ptr, ptr }
%struct.uv_async_s = type { ptr, ptr, i32, ptr, %struct.uv__queue, %union.anon.0, ptr, i32, ptr, %struct.uv__queue, i32 }
%union.anon.0 = type { [4 x ptr] }
%union.pthread_rwlock_t = type { %struct.__pthread_rwlock_arch_t }
%struct.__pthread_rwlock_arch_t = type { i32, i32, i32, i32, i32, i32, i32, i32, i8, [7 x i8], i64, i32 }
%struct.uv__queue = type { ptr, ptr }
%struct.anon = type { ptr, i32 }
%struct.uv_signal_s = type { ptr, ptr, i32, ptr, %struct.uv__queue, %union.anon.1, ptr, i32, ptr, i32, %struct.anon.2, i32, i32 }
%union.anon.1 = type { [4 x ptr] }
%struct.anon.2 = type { ptr, ptr, ptr, i32 }
%struct.uv__io_s = type { ptr, %struct.uv__queue, %struct.uv__queue, i32, i32, i32 }

; Function Attrs: nounwind uwtable
define hidden i32 @uv__process_init(ptr noundef %0) #0 {
  %2 = alloca i32, align 4
  %3 = alloca ptr, align 8
  %4 = alloca i32, align 4
  %5 = alloca i32, align 4
  store ptr %0, ptr %3, align 8
  call void @llvm.lifetime.start.p0(i64 4, ptr %4) #9
  %6 = load ptr, ptr %3, align 8
  %7 = load ptr, ptr %3, align 8
  %8 = getelementptr inbounds nuw %struct.uv_loop_s, ptr %7, i32 0, i32 31
  %9 = call i32 @uv_signal_init(ptr noundef %6, ptr noundef %8)
  store i32 %9, ptr %4, align 4
  %10 = load i32, ptr %4, align 4
  %11 = icmp ne i32 %10, 0
  br i1 %11, label %12, label %14

12:                                               ; preds = %1
  %13 = load i32, ptr %4, align 4
  store i32 %13, ptr %2, align 4
  store i32 1, ptr %5, align 4
  br label %62

14:                                               ; preds = %1
  br label %15

15:                                               ; preds = %14
  %16 = load ptr, ptr %3, align 8
  %17 = getelementptr inbounds nuw %struct.uv_loop_s, ptr %16, i32 0, i32 31
  %18 = getelementptr inbounds nuw %struct.uv_signal_s, ptr %17, i32 0, i32 7
  %19 = load i32, ptr %18, align 8
  %20 = and i32 %19, 8
  %21 = icmp eq i32 %20, 0
  br i1 %21, label %22, label %23

22:                                               ; preds = %15
  br label %56

23:                                               ; preds = %15
  %24 = load ptr, ptr %3, align 8
  %25 = getelementptr inbounds nuw %struct.uv_loop_s, ptr %24, i32 0, i32 31
  %26 = getelementptr inbounds nuw %struct.uv_signal_s, ptr %25, i32 0, i32 7
  %27 = load i32, ptr %26, align 8
  %28 = and i32 %27, -9
  store i32 %28, ptr %26, align 8
  %29 = load ptr, ptr %3, align 8
  %30 = getelementptr inbounds nuw %struct.uv_loop_s, ptr %29, i32 0, i32 31
  %31 = getelementptr inbounds nuw %struct.uv_signal_s, ptr %30, i32 0, i32 7
  %32 = load i32, ptr %31, align 8
  %33 = and i32 %32, 1
  %34 = icmp ne i32 %33, 0
  br i1 %34, label %35, label %36

35:                                               ; preds = %23
  br label %56

36:                                               ; preds = %23
  %37 = load ptr, ptr %3, align 8
  %38 = getelementptr inbounds nuw %struct.uv_loop_s, ptr %37, i32 0, i32 31
  %39 = getelementptr inbounds nuw %struct.uv_signal_s, ptr %38, i32 0, i32 7
  %40 = load i32, ptr %39, align 8
  %41 = and i32 %40, 4
  %42 = icmp ne i32 %41, 0
  br i1 %42, label %43, label %54

43:                                               ; preds = %36
  br label %44

44:                                               ; preds = %43
  %45 = load ptr, ptr %3, align 8
  %46 = getelementptr inbounds nuw %struct.uv_loop_s, ptr %45, i32 0, i32 31
  %47 = getelementptr inbounds nuw %struct.uv_signal_s, ptr %46, i32 0, i32 1
  %48 = load ptr, ptr %47, align 8
  %49 = getelementptr inbounds nuw %struct.uv_loop_s, ptr %48, i32 0, i32 1
  %50 = load i32, ptr %49, align 8
  %51 = add i32 %50, -1
  store i32 %51, ptr %49, align 8
  br label %52

52:                                               ; preds = %44
  br label %53

53:                                               ; preds = %52
  br label %54

54:                                               ; preds = %53, %36
  br label %55

55:                                               ; preds = %54
  br label %56

56:                                               ; preds = %55, %35, %22
  %57 = load ptr, ptr %3, align 8
  %58 = getelementptr inbounds nuw %struct.uv_loop_s, ptr %57, i32 0, i32 31
  %59 = getelementptr inbounds nuw %struct.uv_signal_s, ptr %58, i32 0, i32 7
  %60 = load i32, ptr %59, align 8
  %61 = or i32 %60, 16
  store i32 %61, ptr %59, align 8
  store i32 0, ptr %2, align 4
  store i32 1, ptr %5, align 4
  br label %62

62:                                               ; preds = %56, %12
  call void @llvm.lifetime.end.p0(i64 4, ptr %4) #9
  %63 = load i32, ptr %2, align 4
  ret i32 %63
}