; Function Attrs: nounwind uwtable
define hidden i32 @uv__process_init(ptr noundef %0) local_unnamed_addr #0 {
  %2 = getelementptr inbounds nuw i8, ptr %0, i64 616
  %3 = tail call i32 @uv_signal_init(ptr noundef %0, ptr noundef nonnull %2) #12
  %.not = icmp eq i32 %3, 0
  br i1 %.not, label %4, label %21

4:                                                ; preds = %1
  %5 = getelementptr inbounds nuw i8, ptr %0, i64 704
  %6 = load i32, ptr %5, align 8
  %7 = and i32 %6, 8
  %8 = icmp eq i32 %7, 0
  br i1 %8, label %18, label %9

9:                                                ; preds = %4
  %10 = and i32 %6, -9
  store i32 %10, ptr %5, align 8
  %11 = and i32 %6, 5
  %or.cond.not = icmp eq i32 %11, 4
  br i1 %or.cond.not, label %12, label %18

12:                                               ; preds = %9
  %13 = getelementptr inbounds nuw i8, ptr %0, i64 624
  %14 = load ptr, ptr %13, align 8
  %15 = getelementptr inbounds nuw i8, ptr %14, i64 8
  %16 = load i32, ptr %15, align 8
  %17 = add i32 %16, -1
  store i32 %17, ptr %15, align 8
  %.pre = load i32, ptr %5, align 8
  br label %18

18:                                               ; preds = %12, %9, %4
  %19 = phi i32 [ %.pre, %12 ], [ %10, %9 ], [ %6, %4 ]
  %20 = or i32 %19, 16
  store i32 %20, ptr %5, align 8
  br label %21

21:                                               ; preds = %1, %18
  ret i32 %3
}